; Function Attrs: mustprogress nounwind uwtable
define internal void @_ZN12_GLOBAL__N_136UnexploredFirstPriorityLocationQueueD2Ev(ptr noundef nonnull align 8 captures(none) dereferenceable(80) initializes((0, 8)) %0) unnamed_addr #3 align 2 {
  store ptr getelementptr inbounds nuw inrange(-16, 40) (i8, ptr @_ZTVN12_GLOBAL__N_136UnexploredFirstPriorityLocationQueueE, i64 16), ptr %0, align 8
  %2 = getelementptr inbounds nuw i8, ptr %0, i64 48
  %3 = load ptr, ptr %2, align 8
  %.not.i.i.i.i.i = icmp eq ptr %3, null
  br i1 %.not.i.i.i.i.i, label %_ZN4llvm13PriorityQueueISt4pairIN5clang4ento12WorkListUnitES1_IimEESt6vectorIS6_SaIS6_EENS_11less_secondEED2Ev.exit, label %4

4:                                                ; preds = %1
  %5 = getelementptr inbounds nuw i8, ptr %0, i64 64
  %6 = load ptr, ptr %5, align 8
  %7 = ptrtoint ptr %6 to i64
  %8 = ptrtoint ptr %3 to i64
  %9 = sub i64 %7, %8
  tail call void @_ZdlPvm(ptr noundef nonnull %3, i64 noundef %9) #18
  br label %_ZN4llvm13PriorityQueueISt4pairIN5clang4ento12WorkListUnitES1_IimEESt6vectorIS6_SaIS6_EENS_11less_secondEED2Ev.exit

_ZN4llvm13PriorityQueueISt4pairIN5clang4ento12WorkListUnitES1_IimEESt6vectorIS6_SaIS6_EENS_11less_secondEED2Ev.exit: ; preds = %1, %4
  %10 = getelementptr inbounds nuw i8, ptr %0, i64 24
  %11 = load ptr, ptr %10, align 8
  %12 = getelementptr inbounds nuw i8, ptr %0, i64 40
  %13 = load i32, ptr %12, align 8
  %14 = zext i32 %13 to i64
  %15 = shl nuw nsw i64 %14, 4
  tail call void @_ZN4llvm17deallocate_bufferEPvmm(ptr noundef %11, i64 noundef %15, i64 noundef 8) #17
  ret void
}